Certificate:
    Data:
        Version: 3 (0x2)
        Serial Number: 1 (0x1)
    Signature Algorithm: sha256WithRSAEncryption
        Issuer: C=FR, ST=IdF, L=Paris, O=Linagora, OU=R&D Saas, CN=Linagora CA/name=EasyRSA/emailAddress=tsarboni@linagora.com
        Validity
            Not Before: Sep 14 08:53:06 2015 GMT
            Not After : Sep 11 08:53:06 2025 GMT
        Subject: C=FR, ST=IdF, L=Paris, O=Linagora, OU=R&D Saas, CN=*.linshare.local/name=EasyRSA/emailAddress=tsarboni@linagora.com
        Subject Public Key Info:
            Public Key Algorithm: rsaEncryption
                Public-Key: (2048 bit)
                Modulus:
                    00:df:8f:9e:0c:7e:ff:03:12:a2:ef:01:4a:4f:02:
                    9f:92:da:32:36:23:f0:e3:04:1c:db:be:ea:a5:b0:
                    f1:8d:e1:0a:a5:b7:c5:cf:c0:19:7c:30:4b:b8:0c:
                    3c:22:9e:02:47:bc:ae:b8:8d:9e:e1:4f:7f:8a:dd:
                    99:3f:4f:61:c6:45:8a:b5:78:96:00:53:40:8b:8f:
                    aa:40:86:1d:e4:cf:16:9d:c6:d4:d9:1d:ca:43:66:
                    c9:52:78:5c:ea:e5:ba:20:d4:b2:a4:fd:de:71:bf:
                    dc:1e:42:ee:31:0f:15:14:e1:ae:40:f6:33:3d:4b:
                    23:fe:e9:85:63:8a:1e:52:79:b2:d1:85:4a:b6:89:
                    43:e6:a1:02:ef:2e:a1:b3:d9:85:6a:fa:47:80:6e:
                    9c:c5:71:f3:97:ed:21:1f:5d:bd:65:7b:d1:d4:c6:
                    bb:69:54:4d:6c:be:d6:9a:a1:9c:e2:1d:06:26:c1:
                    32:c4:6f:dc:aa:d5:45:b2:bb:e2:d7:4a:4f:e0:9e:
                    c9:ed:f4:8c:b5:f4:fe:08:57:64:ee:a1:a8:83:21:
                    79:30:d4:71:33:0f:e7:d1:a2:6d:fc:23:b5:b3:7f:
                    db:7e:a4:bb:89:6c:6a:d8:d8:0c:f4:93:b3:5d:3b:
                    f4:62:d0:6e:5f:7b:1d:c7:bd:cf:a8:f9:eb:8d:11:
                    ad:71
                Exponent: 65537 (0x10001)
        X509v3 extensions:
            X509v3 Basic Constraints: 
                CA:FALSE
            Netscape Cert Type: 
                SSL Server
            Netscape Comment: 
                Easy-RSA Generated Server Certificate
            X509v3 Subject Key Identifier: 
                28:DD:B4:92:F2:8C:CB:0F:42:2A:CE:1F:0B:7C:02:76:D9:A4:E9:D3
            X509v3 Authority Key Identifier: 
                keyid:9C:BB:89:CE:0C:19:93:D5:FC:46:06:F4:41:4C:98:CF:AC:DD:20:B4
                DirName:/C=FR/ST=IdF/L=Paris/O=Linagora/OU=R&D Saas/CN=Linagora CA/name=EasyRSA/emailAddress=tsarboni@linagora.com
                serial:C8:A4:35:A9:AA:A9:13:E3

            X509v3 Extended Key Usage: 
                TLS Web Server Authentication
            X509v3 Key Usage: 
                Digital Signature, Key Encipherment
    Signature Algorithm: sha256WithRSAEncryption
         99:8d:66:fc:73:b4:04:ae:d1:04:5e:80:73:a5:6c:54:f3:bd:
         a4:51:1a:6f:90:11:32:f4:e4:c1:f2:9d:e0:aa:fe:c6:c5:02:
         68:a1:f9:fa:8d:88:d2:62:db:6c:9d:78:dc:6a:e2:89:3f:cf:
         3f:3a:8a:89:56:b3:70:f2:db:32:da:08:07:06:11:33:05:60:
         d7:31:f3:21:3f:f5:11:21:59:5e:8e:8a:ad:1d:2f:c8:88:54:
         42:90:bc:2a:fd:42:26:99:b3:45:ac:4a:98:2d:2f:51:ee:8d:
         1e:3e:01:40:b1:f2:a1:45:e3:8b:f1:91:97:e8:f8:9c:45:fe:
         c2:42:2e:8f:f1:7e:24:3d:73:ad:c0:7b:6d:3e:e7:5e:c5:36:
         70:e3:32:ee:8e:d0:47:46:d6:63:5e:8d:5c:e3:ee:08:3e:56:
         53:3f:ca:39:02:23:1d:d5:fd:90:20:cd:37:a5:4f:83:21:c9:
         5b:41:cc:cb:57:51:9c:b9:a6:31:1c:74:fa:24:a4:84:a0:98:
         a0:69:3e:b1:eb:a5:1c:84:ac:9d:4d:e0:37:e9:a0:f2:e6:9d:
         ca:7b:26:0a:66:d9:91:f8:b0:f3:49:4f:85:59:cf:58:b5:b5:
         15:7c:86:0b:c0:a8:42:4b:bd:3c:90:54:70:8b:dd:c1:bd:cb:
         ba:67:13:a9
-----BEGIN CERTIFICATE-----
MIIFMjCCBBqgAwIBAgIBATANBgkqhkiG9w0BAQsFADCBnzELMAkGA1UEBhMCRlIx
DDAKBgNVBAgTA0lkRjEOMAwGA1UEBxMFUGFyaXMxETAPBgNVBAoTCExpbmFnb3Jh
MREwDwYDVQQLFAhSJkQgU2FhczEUMBIGA1UEAxMLTGluYWdvcmEgQ0ExEDAOBgNV
BCkTB0Vhc3lSU0ExJDAiBgkqhkiG9w0BCQEWFXRzYXJib25pQGxpbmFnb3JhLmNv
bTAeFw0xNTA5MTQwODUzMDZaFw0yNTA5MTEwODUzMDZaMIGkMQswCQYDVQQGEwJG
UjEMMAoGA1UECBMDSWRGMQ4wDAYDVQQHEwVQYXJpczERMA8GA1UEChMITGluYWdv
cmExETAPBgNVBAsUCFImRCBTYWFzMRkwFwYDVQQDFBAqLmxpbnNoYXJlLmxvY2Fs
MRAwDgYDVQQpEwdFYXN5UlNBMSQwIgYJKoZIhvcNAQkBFhV0c2FyYm9uaUBsaW5h
Z29yYS5jb20wggEiMA0GCSqGSIb3DQEBAQUAA4IBDwAwggEKAoIBAQDfj54Mfv8D
EqLvAUpPAp+S2jI2I/DjBBzbvuqlsPGN4Qqlt8XPwBl8MEu4DDwingJHvK64jZ7h
T3+K3Zk/T2HGRYq1eJYAU0CLj6pAhh3kzxadxtTZHcpDZslSeFzq5bog1LKk/d5x
v9weQu4xDxUU4a5A9jM9SyP+6YVjih5SebLRhUq2iUPmoQLvLqGz2YVq+keAbpzF
cfOX7SEfXb1le9HUxrtpVE1svtaaoZziHQYmwTLEb9yq1UWyu+LXSk/gnsnt9Iy1
9P4IV2TuoaiDIXkw1HEzD+fRom38I7Wzf9t+pLuJbGrY2Az0k7NdO/Ri0G5fex3H
vc+o+euNEa1xAgMBAAGjggFwMIIBbDAJBgNVHRMEAjAAMBEGCWCGSAGG+EIBAQQE
AwIGQDA0BglghkgBhvhCAQ0EJxYlRWFzeS1SU0EgR2VuZXJhdGVkIFNlcnZlciBD
ZXJ0aWZpY2F0ZTAdBgNVHQ4EFgQUKN20kvKMyw9CKs4fC3wCdtmk6dMwgdQGA1Ud
IwSBzDCByYAUnLuJzgwZk9X8Rgb0QUyYz6zdILShgaWkgaIwgZ8xCzAJBgNVBAYT
AkZSMQwwCgYDVQQIEwNJZEYxDjAMBgNVBAcTBVBhcmlzMREwDwYDVQQKEwhMaW5h
Z29yYTERMA8GA1UECxQIUiZEIFNhYXMxFDASBgNVBAMTC0xpbmFnb3JhIENBMRAw
DgYDVQQpEwdFYXN5UlNBMSQwIgYJKoZIhvcNAQkBFhV0c2FyYm9uaUBsaW5hZ29y
YS5jb22CCQDIpDWpqqkT4zATBgNVHSUEDDAKBggrBgEFBQcDATALBgNVHQ8EBAMC
BaAwDQYJKoZIhvcNAQELBQADggEBAJmNZvxztASu0QRegHOlbFTzvaRRGm+QETL0
5MHyneCq/sbFAmih+fqNiNJi22ydeNxq4ok/zz86iolWs3Dy2zLaCAcGETMFYNcx
8yE/9REhWV6Oiq0dL8iIVEKQvCr9QiaZs0WsSpgtL1HujR4+AUCx8qFF44vxkZfo
+JxF/sJCLo/xfiQ9c63Ae20+517FNnDjMu6O0EdG1mNejVzj7gg+VlM/yjkCIx3V
/ZAgzTelT4MhyVtBzMtXUZy5pjEcdPokpISgmKBpPrHrpRyErJ1N4DfpoPLmncp7
Jgpm2ZH4sPNJT4VZz1i1tRV8hgvAqEJLvTyQVHCL3cG9y7pnE6k=
-----END CERTIFICATE-----
